target datalayout = "e-m:e-p270:32:32-p271:32:32-p272:64:64-i64:64-i128:128-f80:128-n8:16:32:64-S128"
target triple = "x86_64-pc-linux-gnu"

; Function Attrs: mustprogress sspstrong uwtable
define noundef i32 @_ZN3tbb6detail2r120__TBB_load_ittnotifyEv() #0 {
  %1 = alloca i32, align 4
  %2 = icmp eq ptr @dlopen, null
  br i1 %2, label %3, label %4

3:                                                ; preds = %0
  store i32 0, ptr %1, align 4
  br label %6

4:                                                ; preds = %0
  %5 = call i32 @__itt_init_ittlib(ptr noundef null, i32 noundef 5140)
  store i32 %5, ptr %1, align 4
  br label %6

6:                                                ; preds = %4, %3
  %7 = load i32, ptr %1, align 4
  ret i32 %7
}