; Function Attrs: mustprogress sspstrong uwtable
define noundef range(i32 0, 2) i32 @_ZN3tbb6detail2r120__TBB_load_ittnotifyEv() local_unnamed_addr #0 {
  %1 = icmp eq ptr @dlopen, null
  br i1 %1, label %4, label %2

2:                                                ; preds = %0
  %3 = tail call i32 @__itt_init_ittlib(ptr noundef null, i32 noundef 5140)
  br label %4

4:                                                ; preds = %0, %2
  %.0 = phi i32 [ %3, %2 ], [ 0, %0 ]
  ret i32 %.0
}